; Function Attrs: nounwind uwtable
define void @ossl_quic_channel_reject_stream(ptr noundef %0, ptr noundef %1) local_unnamed_addr #0 {
  %3 = getelementptr inbounds nuw i8, ptr %0, i64 848
  %4 = getelementptr inbounds nuw i8, ptr %0, i64 1456
  %5 = load i64, ptr %4, align 8, !tbaa !249
  %6 = tail call i32 @ossl_quic_stream_map_stop_sending_recv_part(ptr noundef nonnull %3, ptr noundef %1, i64 noundef %5) #15
  %7 = load i64, ptr %4, align 8, !tbaa !249
  %8 = tail call i32 @ossl_quic_stream_map_reset_stream_send_part(ptr noundef nonnull %3, ptr noundef %1, i64 noundef %7) #15
  %9 = getelementptr inbounds nuw i8, ptr %1, i64 256
  %10 = load i64, ptr %9, align 8
  %11 = or i64 %10, 137438953472
  store i64 %11, ptr %9, align 8
  tail call void @ossl_quic_stream_map_update_state(ptr noundef nonnull %3, ptr noundef %1) #15
  ret void
}